
_INTERRUPT_HIGH:

;main.c,8 :: 		void INTERRUPT_HIGH() iv 0x0008 ics ICS_AUTO {
;main.c,11 :: 		if (TMR2IF_bit){
	BTFSS       TMR2IF_bit+0, BitPos(TMR2IF_bit+0) 
	GOTO        L_INTERRUPT_HIGH0
;main.c,12 :: 		TMR2IF_bit = 0;
	BCF         TMR2IF_bit+0, BitPos(TMR2IF_bit+0) 
;main.c,13 :: 		OS_Timer();
	CLRF        INTERRUPT_HIGH__os_i_L3+0 
L_INTERRUPT_HIGH1:
	MOVLW       4
	SUBWF       INTERRUPT_HIGH__os_i_L3+0, 0 
	BTFSC       STATUS+0, 0 
	GOTO        L_INTERRUPT_HIGH2
	MOVLW       9
	MOVWF       R0 
	MOVLW       0
	MOVWF       R1 
	MOVF        INTERRUPT_HIGH__os_i_L3+0, 0 
	MOVWF       R4 
	MOVLW       0
	MOVWF       R5 
	CALL        _Mul_16X16_U+0, 0
	MOVLW       __OS_Tasks+0
	ADDWF       R0, 0 
	MOVWF       FSR0 
	MOVLW       hi_addr(__OS_Tasks+0)
	ADDWFC      R1, 0 
	MOVWF       FSR0H 
	MOVF        POSTINC0+0, 0 
	MOVWF       R0 
	BTFSS       R0, 4 
	GOTO        L_INTERRUPT_HIGH4
	MOVLW       9
	MOVWF       R0 
	MOVLW       0
	MOVWF       R1 
	MOVF        INTERRUPT_HIGH__os_i_L3+0, 0 
	MOVWF       R4 
	MOVLW       0
	MOVWF       R5 
	CALL        _Mul_16X16_U+0, 0
	MOVLW       __OS_Tasks+0
	ADDWF       R0, 1 
	MOVLW       hi_addr(__OS_Tasks+0)
	ADDWFC      R1, 1 
	MOVLW       5
	ADDWF       R0, 0 
	MOVWF       R4 
	MOVLW       0
	ADDWFC      R1, 0 
	MOVWF       R5 
	MOVFF       R4, FSR0
	MOVFF       R5, FSR0H
	MOVLW       1
	ADDWF       POSTINC0+0, 0 
	MOVWF       R0 
	MOVLW       0
	ADDWFC      POSTINC0+0, 0 
	MOVWF       R1 
	MOVLW       0
	ADDWFC      POSTINC0+0, 0 
	MOVWF       R2 
	MOVLW       0
	ADDWFC      POSTINC0+0, 0 
	MOVWF       R3 
	MOVFF       R4, FSR1
	MOVFF       R5, FSR1H
	MOVF        R0, 0 
	MOVWF       POSTINC1+0 
	MOVF        R1, 0 
	MOVWF       POSTINC1+0 
	MOVF        R2, 0 
	MOVWF       POSTINC1+0 
	MOVF        R3, 0 
	MOVWF       POSTINC1+0 
	MOVFF       R4, FSR0
	MOVFF       R5, FSR0H
	MOVF        POSTINC0+0, 0 
	MOVWF       R0 
	MOVF        POSTINC0+0, 0 
	MOVWF       R1 
	MOVF        POSTINC0+0, 0 
	MOVWF       R2 
	MOVF        POSTINC0+0, 0 
	MOVWF       R3 
	MOVF        R0, 0 
	IORWF       R1, 0 
	IORWF       R2, 0 
	IORWF       R3, 0 
	BTFSS       STATUS+0, 2 
	GOTO        L_INTERRUPT_HIGH5
	MOVLW       9
	MOVWF       R0 
	MOVLW       0
	MOVWF       R1 
	MOVF        INTERRUPT_HIGH__os_i_L3+0, 0 
	MOVWF       R4 
	MOVLW       0
	MOVWF       R5 
	CALL        _Mul_16X16_U+0, 0
	MOVLW       __OS_Tasks+0
	ADDWF       R0, 0 
	MOVWF       FSR1 
	MOVLW       hi_addr(__OS_Tasks+0)
	ADDWFC      R1, 0 
	MOVWF       FSR1H 
	BCF         POSTINC1+0, 4 
L_INTERRUPT_HIGH5:
L_INTERRUPT_HIGH4:
	INCF        INTERRUPT_HIGH__os_i_L3+0, 1 
	GOTO        L_INTERRUPT_HIGH1
L_INTERRUPT_HIGH2:
;main.c,14 :: 		}
L_INTERRUPT_HIGH0:
;main.c,17 :: 		}
L_end_INTERRUPT_HIGH:
L__INTERRUPT_HIGH42:
	RETFIE      1
; end of _INTERRUPT_HIGH

_main:

;main.c,20 :: 		void main (void)
;main.c,22 :: 		InitMCU();                         //Inicializa os periféricos do MCU
	CALL        _InitMCU+0, 0
;main.c,23 :: 		TickTimerIE();                     //Configura e habilita a Interrupção TickTimer
	CALL        _TickTimerIE+0, 0
;main.c,24 :: 		InitLCD();
	CALL        _InitLCD+0, 0
;main.c,26 :: 		OS_Init();                         //Inicializa RTO's
	CALL        _OS_Init+0, 0
;main.c,28 :: 		OS_Task_Create(0, Task_LCD);       //Cria a task LCD
	CLRF        FARG__OS_Task_Create_priority+0 
	MOVLW       _Task_LCD+0
	MOVWF       FARG__OS_Task_Create_TaskAddr+0 
	MOVLW       hi_addr(_Task_LCD+0)
	MOVWF       FARG__OS_Task_Create_TaskAddr+1 
	MOVLW       0
	MOVWF       FARG__OS_Task_Create_TaskAddr+2 
	MOVLW       0
	MOVWF       FARG__OS_Task_Create_TaskAddr+3 
	CALL        __OS_Task_Create+0, 0
;main.c,30 :: 		OS_EI();
	BSF         GIE_bit+0, BitPos(GIE_bit+0) 
	BTFSS       IPEN_bit+0, BitPos(IPEN_bit+0) 
	GOTO        L_main6
	BSF         GIEL_bit+0, BitPos(GIEL_bit+0) 
L_main6:
;main.c,32 :: 		OS_Run();
L_main7:
	BCF         __OS_Flags+0, 4 
	BSF         __OS_Flags+0, 3 
	MOVLW       8
	MOVWF       __OS_Best_Priority+0 
	MOVF        __OS_LastTask+0, 0 
	MOVWF       __OS_CurTask+0 
	MOVF        __OS_LastTask+1, 0 
	MOVWF       __OS_CurTask+1 
L_main10:
	MOVLW       hi_addr(__OS_Tasks+27)
	SUBWF       __OS_CurTask+1, 0 
	BTFSS       STATUS+0, 2 
	GOTO        L__main44
	MOVLW       __OS_Tasks+27
	SUBWF       __OS_CurTask+0, 0 
L__main44:
	BTFSS       STATUS+0, 0 
	GOTO        L_main13
	MOVLW       __OS_Tasks+0
	MOVWF       __OS_CurTask+0 
	MOVLW       hi_addr(__OS_Tasks+0)
	MOVWF       __OS_CurTask+1 
	GOTO        L_main14
L_main13:
	MOVLW       9
	ADDWF       __OS_CurTask+0, 0 
	MOVWF       R0 
	MOVLW       0
	ADDWFC      __OS_CurTask+1, 0 
	MOVWF       R1 
	MOVF        R0, 0 
	MOVWF       __OS_CurTask+0 
	MOVF        R1, 0 
	MOVWF       __OS_CurTask+1 
L_main14:
	MOVF        __OS_CurTask+0, 0 
	MOVWF       FSR0 
	MOVF        __OS_CurTask+1, 0 
	MOVWF       FSR0H 
	MOVLW       1
	MOVWF       R0 
	MOVLW       __OS_State+0
	MOVWF       FSR1 
	MOVLW       hi_addr(__OS_State+0)
	MOVWF       FSR1H 
L_main15:
	MOVF        POSTINC0+0, 0 
	MOVWF       POSTINC1+0 
	DECF        R0, 1 
	BTFSS       STATUS+0, 2 
	GOTO        L_main15
	BTFSS       __OS_State+0, 6 
	GOTO        L__main40
	BTFSC       __OS_State+0, 7 
	GOTO        L__main40
	GOTO        L_main18
L__main40:
	GOTO        ___main__OS_SCHED_CONTINUE
L_main18:
	MOVF        __OS_State+0, 0 
	MOVWF       R0 
	MOVLW       7
	ANDWF       R0, 1 
	MOVF        R0, 0 
	MOVWF       __OS_Temp+0 
	MOVF        __OS_Best_Priority+0, 0 
	SUBWF       __OS_Temp+0, 0 
	BTFSS       STATUS+0, 0 
	GOTO        L_main19
	GOTO        ___main__OS_SCHED_CONTINUE
L_main19:
	BTFSC       __OS_State+0, 3 
	GOTO        L_main20
___main__OS_SCHED_RUN:
	CALL        __OS_JumpToTask+0, 0
	CALL        __OS_SET_FSR_CUR_TASK+0, 0
	MOVLW       215
	ANDWF       __indf+0, 1 
	MOVLW       40
	ANDWF       __OS_State+0, 0 
	MOVWF       R0 
	MOVF        R0, 0 
	IORWF       __indf+0, 1 
	BTFSC       __OS_Flags+0, 3 
	GOTO        L_main21
	GOTO        ___main_SCHED_END
L_main21:
L_main20:
	BTFSS       __OS_State+0, 4 
	GOTO        L_main24
	BTFSC       __OS_State+0, 5 
	GOTO        L_main24
L__main39:
	GOTO        ___main__OS_SCHED_CONTINUE
L_main24:
	BTFSS       __OS_State+0, 3 
	GOTO        L_main25
	BSF         __OS_Flags+0, 4 
	MOVF        __OS_CurTask+0, 0 
	MOVWF       __OS_BestTask+0 
	MOVF        __OS_CurTask+1, 0 
	MOVWF       __OS_BestTask+1 
	MOVF        __OS_State+0, 0 
	MOVWF       R0 
	MOVLW       7
	ANDWF       R0, 1 
	MOVF        R0, 0 
	MOVWF       __OS_Best_Priority+0 
	MOVF        __OS_Best_Priority+0, 0 
	XORLW       0
	BTFSS       STATUS+0, 2 
	GOTO        L_main26
	GOTO        L_main11
L_main26:
L_main25:
___main__OS_SCHED_CONTINUE:
	MOVF        __OS_CurTask+1, 0 
	XORWF       __OS_LastTask+1, 0 
	BTFSS       STATUS+0, 2 
	GOTO        L__main45
	MOVF        __OS_LastTask+0, 0 
	XORWF       __OS_CurTask+0, 0 
L__main45:
	BTFSC       STATUS+0, 2 
	GOTO        L__main38
	GOTO        L_main10
L__main38:
L_main11:
	BTFSS       __OS_Flags+0, 4 
	GOTO        L_main29
	BCF         __OS_Flags+0, 3 
	MOVF        __OS_BestTask+0, 0 
	MOVWF       __OS_CurTask+0 
	MOVF        __OS_BestTask+1, 0 
	MOVWF       __OS_CurTask+1 
	MOVF        __OS_CurTask+0, 0 
	MOVWF       __OS_LastTask+0 
	MOVF        __OS_CurTask+1, 0 
	MOVWF       __OS_LastTask+1 
	MOVF        __OS_CurTask+0, 0 
	MOVWF       FSR0 
	MOVF        __OS_CurTask+1, 0 
	MOVWF       FSR0H 
	MOVLW       1
	MOVWF       R0 
	MOVLW       __OS_State+0
	MOVWF       FSR1 
	MOVLW       hi_addr(__OS_State+0)
	MOVWF       FSR1H 
L_main30:
	MOVF        POSTINC0+0, 0 
	MOVWF       POSTINC1+0 
	DECF        R0, 1 
	BTFSS       STATUS+0, 2 
	GOTO        L_main30
	BTFSS       __OS_State+0, 6 
	GOTO        L_main33
	BTFSC       __OS_State+0, 7 
	GOTO        L_main33
L__main37:
	GOTO        ___main__OS_SCHED_RUN
L_main33:
L_main29:
___main_SCHED_END:
	GOTO        L_main7
;main.c,34 :: 		}
L_end_main:
	GOTO        $+0
; end of _main

_Task_LCD:

;main.c,37 :: 		void Task_LCD(void)
;main.c,42 :: 		for(;;)
L_Task_LCD34:
;main.c,44 :: 		LeituraADC = ADCRead(0);
	CLRF        FARG_ADCRead_Canal+0 
	CALL        _ADCRead+0, 0
;main.c,45 :: 		WordToStr(LeituraADC, txt);
	MOVF        R0, 0 
	MOVWF       FARG_WordToStr_input+0 
	MOVF        R1, 0 
	MOVWF       FARG_WordToStr_input+1 
	MOVLW       Task_LCD_txt_L0+0
	MOVWF       FARG_WordToStr_output+0 
	MOVLW       hi_addr(Task_LCD_txt_L0+0)
	MOVWF       FARG_WordToStr_output+1 
	CALL        _WordToStr+0, 0
;main.c,46 :: 		Lcd_Out(1,1, txt);
	MOVLW       1
	MOVWF       FARG_Lcd_Out_row+0 
	MOVLW       1
	MOVWF       FARG_Lcd_Out_column+0 
	MOVLW       Task_LCD_txt_L0+0
	MOVWF       FARG_Lcd_Out_text+0 
	MOVLW       hi_addr(Task_LCD_txt_L0+0)
	MOVWF       FARG_Lcd_Out_text+1 
	CALL        _Lcd_Out+0, 0
;main.c,47 :: 		OS_Delay(50);
	MOVLW       50
	MOVWF       FARG__OS_InitDelay_Delay+0 
	MOVLW       0
	MOVWF       FARG__OS_InitDelay_Delay+1 
	MOVWF       FARG__OS_InitDelay_Delay+2 
	MOVWF       FARG__OS_InitDelay_Delay+3 
	CALL        __OS_InitDelay+0, 0
	CALL        __OS_ReturnSave+0, 0
	NOP
;main.c,48 :: 		}
	GOTO        L_Task_LCD34
;main.c,49 :: 		}
L_end_Task_LCD:
	RETURN      0
; end of _Task_LCD
